target datalayout = "e-m:e-p270:32:32-p271:32:32-p272:64:64-i64:64-i128:128-f80:128-n8:16:32:64-S128"
target triple = "x86_64-pc-linux-gnu"

%struct.pathspec = type { i32, i8, i32, i32, ptr }
%struct.index_state = type { ptr, i32, i32, i32, i32, ptr, ptr, ptr, %struct.cache_time, i8, i32, %struct.hashmap, %struct.hashmap, %struct.object_id, ptr, ptr, ptr, ptr, ptr, ptr, ptr }
%struct.cache_time = type { i32, i32 }
%struct.hashmap = type { ptr, ptr, ptr, i32, i32, i32, i32, i8 }
%struct.object_id = type { [32 x i8], i32 }
%struct.cache_entry = type { %struct.hashmap_entry, %struct.stat_data, i32, i32, i32, i32, i32, %struct.object_id, [0 x i8] }
%struct.hashmap_entry = type { ptr, i32 }
%struct.stat_data = type { %struct.cache_time, %struct.cache_time, i32, i32, i32, i32, i32 }

; Function Attrs: inlinehint nounwind uwtable
define internal i32 @ce_path_match(ptr noundef %0, ptr noundef %1, ptr noundef %2, ptr noundef %3) #3 {
  %5 = alloca ptr, align 8
  %6 = alloca ptr, align 8
  %7 = alloca ptr, align 8
  %8 = alloca ptr, align 8
  store ptr %0, ptr %5, align 8, !tbaa !9
  store ptr %1, ptr %6, align 8, !tbaa !38
  store ptr %2, ptr %7, align 8, !tbaa !4
  store ptr %3, ptr %8, align 8, !tbaa !11
  %9 = load ptr, ptr %5, align 8, !tbaa !9
  %10 = load ptr, ptr %7, align 8, !tbaa !4
  %11 = load ptr, ptr %6, align 8, !tbaa !38
  %12 = getelementptr inbounds nuw %struct.cache_entry, ptr %11, i32 0, i32 8
  %13 = getelementptr inbounds [0 x i8], ptr %12, i64 0, i64 0
  %14 = load ptr, ptr %6, align 8, !tbaa !38
  %15 = getelementptr inbounds nuw %struct.cache_entry, ptr %14, i32 0, i32 5
  %16 = load i32, ptr %15, align 8, !tbaa !13
  %17 = load ptr, ptr %8, align 8, !tbaa !11
  %18 = load ptr, ptr %6, align 8, !tbaa !38
  %19 = getelementptr inbounds nuw %struct.cache_entry, ptr %18, i32 0, i32 2
  %20 = load i32, ptr %19, align 4, !tbaa !13
  %21 = and i32 %20, 61440
  %22 = icmp eq i32 %21, 16384
  br i1 %22, label %29, label %23

23:                                               ; preds = %4
  %24 = load ptr, ptr %6, align 8, !tbaa !38
  %25 = getelementptr inbounds nuw %struct.cache_entry, ptr %24, i32 0, i32 2
  %26 = load i32, ptr %25, align 4, !tbaa !13
  %27 = and i32 %26, 61440
  %28 = icmp eq i32 %27, 57344
  br label %29

29:                                               ; preds = %23, %4
  %30 = phi i1 [ true, %4 ], [ %28, %23 ]
  %31 = zext i1 %30 to i32
  %32 = call i32 @match_pathspec(ptr noundef %9, ptr noundef %10, ptr noundef %13, i32 noundef %16, i32 noundef 0, ptr noundef %17, i32 noundef %31)
  ret i32 %32
}

; Function Attrs: nounwind uwtable
define dso_local void @add_pathspec_matches_against_index(ptr noundef %0, ptr noundef %1, ptr noundef %2, i32 noundef %3) #0 {
  %5 = alloca ptr, align 8
  %6 = alloca ptr, align 8
  %7 = alloca ptr, align 8
  %8 = alloca i32, align 4
  %9 = alloca i32, align 4
  %10 = alloca i32, align 4
  %11 = alloca i32, align 4
  %12 = alloca ptr, align 8
  store ptr %0, ptr %5, align 8, !tbaa !4
  store ptr %1, ptr %6, align 8, !tbaa !9
  store ptr %2, ptr %7, align 8, !tbaa !11
  store i32 %3, ptr %8, align 4, !tbaa !13
  call void @llvm.lifetime.start.p0(i64 4, ptr %9) #10
  store i32 0, ptr %9, align 4, !tbaa !13
  call void @llvm.lifetime.start.p0(i64 4, ptr %10) #10
  store i32 0, ptr %10, align 4, !tbaa !13
  br label %13

13:                                               ; preds = %30, %4
  %14 = load i32, ptr %10, align 4, !tbaa !13
  %15 = load ptr, ptr %5, align 8, !tbaa !4
  %16 = getelementptr inbounds nuw %struct.pathspec, ptr %15, i32 0, i32 0
  %17 = load i32, ptr %16, align 8, !tbaa !15
  %18 = icmp slt i32 %14, %17
  br i1 %18, label %19, label %33

19:                                               ; preds = %13
  %20 = load ptr, ptr %7, align 8, !tbaa !11
  %21 = load i32, ptr %10, align 4, !tbaa !13
  %22 = sext i32 %21 to i64
  %23 = getelementptr inbounds i8, ptr %20, i64 %22
  %24 = load i8, ptr %23, align 1, !tbaa !18
  %25 = icmp ne i8 %24, 0
  br i1 %25, label %29, label %26

26:                                               ; preds = %19
  %27 = load i32, ptr %9, align 4, !tbaa !13
  %28 = add nsw i32 %27, 1
  store i32 %28, ptr %9, align 4, !tbaa !13
  br label %29

29:                                               ; preds = %26, %19
  br label %30

30:                                               ; preds = %29
  %31 = load i32, ptr %10, align 4, !tbaa !13
  %32 = add nsw i32 %31, 1
  store i32 %32, ptr %10, align 4, !tbaa !13
  br label %13, !llvm.loop !19

33:                                               ; preds = %13
  %34 = load i32, ptr %9, align 4, !tbaa !13
  %35 = icmp ne i32 %34, 0
  br i1 %35, label %37, label %36

36:                                               ; preds = %33
  store i32 1, ptr %11, align 4
  br label %81

37:                                               ; preds = %33
  store i32 0, ptr %10, align 4, !tbaa !13
  br label %38

38:                                               ; preds = %77, %37
  %39 = load i32, ptr %10, align 4, !tbaa !13
  %40 = load ptr, ptr %6, align 8, !tbaa !9
  %41 = getelementptr inbounds nuw %struct.index_state, ptr %40, i32 0, i32 2
  %42 = load i32, ptr %41, align 4, !tbaa !21
  %43 = icmp ult i32 %39, %42
  br i1 %43, label %44, label %80

44:                                               ; preds = %38
  call void @llvm.lifetime.start.p0(i64 8, ptr %12) #10
  %45 = load ptr, ptr %6, align 8, !tbaa !9
  %46 = getelementptr inbounds nuw %struct.index_state, ptr %45, i32 0, i32 0
  %47 = load ptr, ptr %46, align 8, !tbaa !37
  %48 = load i32, ptr %10, align 4, !tbaa !13
  %49 = sext i32 %48 to i64
  %50 = getelementptr inbounds ptr, ptr %47, i64 %49
  %51 = load ptr, ptr %50, align 8, !tbaa !38
  store ptr %51, ptr %12, align 8, !tbaa !38
  %52 = load i32, ptr %8, align 4, !tbaa !13
  %53 = icmp eq i32 %52, 1
  br i1 %53, label %54, label %68

54:                                               ; preds = %44
  %55 = load ptr, ptr %12, align 8, !tbaa !38
  %56 = getelementptr inbounds nuw %struct.cache_entry, ptr %55, i32 0, i32 3
  %57 = load i32, ptr %56, align 8, !tbaa !13
  %58 = and i32 %57, 1073741824
  %59 = icmp ne i32 %58, 0
  br i1 %59, label %67, label %60

60:                                               ; preds = %54
  %61 = load ptr, ptr %12, align 8, !tbaa !38
  %62 = getelementptr inbounds nuw %struct.cache_entry, ptr %61, i32 0, i32 8
  %63 = getelementptr inbounds [0 x i8], ptr %62, i64 0, i64 0
  %64 = load ptr, ptr %6, align 8, !tbaa !9
  %65 = call i32 @path_in_sparse_checkout(ptr noundef %63, ptr noundef %64)
  %66 = icmp ne i32 %65, 0
  br i1 %66, label %68, label %67

67:                                               ; preds = %60, %54
  store i32 7, ptr %11, align 4
  br label %74

68:                                               ; preds = %60, %44
  %69 = load ptr, ptr %6, align 8, !tbaa !9
  %70 = load ptr, ptr %12, align 8, !tbaa !38
  %71 = load ptr, ptr %5, align 8, !tbaa !4
  %72 = load ptr, ptr %7, align 8, !tbaa !11
  %73 = call i32 @ce_path_match(ptr noundef %69, ptr noundef %70, ptr noundef %71, ptr noundef %72)
  store i32 0, ptr %11, align 4
  br label %74

74:                                               ; preds = %68, %67
  call void @llvm.lifetime.end.p0(i64 8, ptr %12) #10
  %75 = load i32, ptr %11, align 4
  switch i32 %75, label %84 [
    i32 0, label %76
    i32 7, label %77
  ]

76:                                               ; preds = %74
  br label %77

77:                                               ; preds = %76, %74
  %78 = load i32, ptr %10, align 4, !tbaa !13
  %79 = add nsw i32 %78, 1
  store i32 %79, ptr %10, align 4, !tbaa !13
  br label %38, !llvm.loop !40

80:                                               ; preds = %38
  store i32 0, ptr %11, align 4
  br label %81

81:                                               ; preds = %80, %36
  call void @llvm.lifetime.end.p0(i64 4, ptr %10) #10
  call void @llvm.lifetime.end.p0(i64 4, ptr %9) #10
  %82 = load i32, ptr %11, align 4
  switch i32 %82, label %84 [
    i32 0, label %83
    i32 1, label %83
  ]

83:                                               ; preds = %81, %81
  ret void

84:                                               ; preds = %81, %74
  unreachable
}