; Function Attrs: nounwind uwtable
define dso_local void @add_pathspec_matches_against_index(ptr noundef %0, ptr noundef %1, ptr noundef %2, i32 noundef %3) local_unnamed_addr #0 {
  %5 = load i32, ptr %0, align 8, !tbaa !4
  %6 = icmp sgt i32 %5, 0
  br i1 %6, label %.lr.ph.preheader, label %.loopexit

.lr.ph.preheader:                                 ; preds = %4
  %wide.trip.count = zext nneg i32 %5 to i64
  br label %.lr.ph

.lr.ph:                                           ; preds = %.lr.ph.preheader, %.lr.ph
  %indvars.iv = phi i64 [ 0, %.lr.ph.preheader ], [ %indvars.iv.next, %.lr.ph ]
  %.025 = phi i32 [ 0, %.lr.ph.preheader ], [ %spec.select, %.lr.ph ]
  %7 = getelementptr inbounds nuw i8, ptr %2, i64 %indvars.iv
  %8 = load i8, ptr %7, align 1, !tbaa !11
  %.not23 = icmp eq i8 %8, 0
  %9 = zext i1 %.not23 to i32
  %spec.select = add nuw nsw i32 %.025, %9
  %indvars.iv.next = add nuw nsw i64 %indvars.iv, 1
  %exitcond.not = icmp eq i64 %indvars.iv.next, %wide.trip.count
  br i1 %exitcond.not, label %._crit_edge, label %.lr.ph, !llvm.loop !12

._crit_edge:                                      ; preds = %.lr.ph
  %10 = icmp eq i32 %spec.select, 0
  br i1 %10, label %.loopexit, label %.preheader

.preheader:                                       ; preds = %._crit_edge
  %11 = getelementptr inbounds nuw i8, ptr %1, i64 12
  %12 = load i32, ptr %11, align 4, !tbaa !14
  %.not28 = icmp eq i32 %12, 0
  br i1 %.not28, label %.loopexit, label %.lr.ph27

.lr.ph27:                                         ; preds = %.preheader
  %13 = icmp eq i32 %3, 1
  br i1 %13, label %.lr.ph27.split.us, label %.lr.ph27.split

.lr.ph27.split.us:                                ; preds = %.lr.ph27, %33
  %indvars.iv34 = phi i64 [ %indvars.iv.next35, %33 ], [ 0, %.lr.ph27 ]
  %14 = load ptr, ptr %1, align 8, !tbaa !31
  %15 = getelementptr inbounds nuw ptr, ptr %14, i64 %indvars.iv34
  %16 = load ptr, ptr %15, align 8, !tbaa !32
  %17 = getelementptr inbounds nuw i8, ptr %16, i64 56
  %18 = load i32, ptr %17, align 8, !tbaa !34
  %19 = and i32 %18, 1073741824
  %.not21.us = icmp eq i32 %19, 0
  br i1 %.not21.us, label %20, label %33

20:                                               ; preds = %.lr.ph27.split.us
  %21 = getelementptr inbounds nuw i8, ptr %16, i64 108
  %22 = tail call i32 @path_in_sparse_checkout(ptr noundef nonnull %21, ptr noundef nonnull %1) #17
  %.not22.us = icmp eq i32 %22, 0
  br i1 %.not22.us, label %33, label %23

23:                                               ; preds = %20
  %24 = getelementptr inbounds nuw i8, ptr %16, i64 64
  %25 = load i32, ptr %24, align 8, !tbaa !34
  %26 = getelementptr inbounds nuw i8, ptr %16, i64 52
  %27 = load i32, ptr %26, align 4, !tbaa !34
  %28 = and i32 %27, 61440
  %29 = icmp eq i32 %28, 16384
  %30 = icmp eq i32 %28, 57344
  %narrow.i.us = or i1 %29, %30
  %31 = zext i1 %narrow.i.us to i32
  %32 = tail call i32 @match_pathspec(ptr noundef nonnull %1, ptr noundef nonnull %0, ptr noundef nonnull %21, i32 noundef %25, i32 noundef 0, ptr noundef %2, i32 noundef %31) #17
  br label %33

33:                                               ; preds = %23, %20, %.lr.ph27.split.us
  %indvars.iv.next35 = add nuw nsw i64 %indvars.iv34, 1
  %34 = load i32, ptr %11, align 4, !tbaa !14
  %35 = zext i32 %34 to i64
  %36 = icmp samesign ult i64 %indvars.iv.next35, %35
  br i1 %36, label %.lr.ph27.split.us, label %.loopexit, !llvm.loop !35

.lr.ph27.split:                                   ; preds = %.lr.ph27, %.lr.ph27.split
  %indvars.iv31 = phi i64 [ %indvars.iv.next32, %.lr.ph27.split ], [ 0, %.lr.ph27 ]
  %37 = load ptr, ptr %1, align 8, !tbaa !31
  %38 = getelementptr inbounds nuw ptr, ptr %37, i64 %indvars.iv31
  %39 = load ptr, ptr %38, align 8, !tbaa !32
  %40 = getelementptr inbounds nuw i8, ptr %39, i64 64
  %41 = load i32, ptr %40, align 8, !tbaa !34
  %42 = getelementptr inbounds nuw i8, ptr %39, i64 52
  %43 = load i32, ptr %42, align 4, !tbaa !34
  %44 = and i32 %43, 61440
  %45 = icmp eq i32 %44, 16384
  %46 = icmp eq i32 %44, 57344
  %narrow.i = or i1 %45, %46
  %47 = zext i1 %narrow.i to i32
  %48 = getelementptr inbounds nuw i8, ptr %39, i64 108
  %49 = tail call i32 @match_pathspec(ptr noundef nonnull %1, ptr noundef nonnull %0, ptr noundef nonnull %48, i32 noundef %41, i32 noundef 0, ptr noundef %2, i32 noundef %47) #17
  %indvars.iv.next32 = add nuw nsw i64 %indvars.iv31, 1
  %50 = load i32, ptr %11, align 4, !tbaa !14
  %51 = zext i32 %50 to i64
  %52 = icmp samesign ult i64 %indvars.iv.next32, %51
  br i1 %52, label %.lr.ph27.split, label %.loopexit, !llvm.loop !35

.loopexit:                                        ; preds = %.lr.ph27.split, %33, %4, %.preheader, %._crit_edge
  ret void
}